target datalayout = "e-m:e-p270:32:32-p271:32:32-p272:64:64-i64:64-i128:128-f80:128-n8:16:32:64-S128"
target triple = "x86_64-unknown-linux-gnu"

%"struct.facebook::velox::common::SpillStats" = type { i64, i64, i64, i64, i32, i64, i64, i64, i64, i64, i64, i64, i64 }
%"class.folly::LockedPtr" = type { %"class.std::unique_lock" }
%"class.std::unique_lock" = type <{ ptr, i8, [7 x i8] }>
%"struct.folly::Synchronized" = type <{ %"struct.facebook::velox::common::SpillStats", %"class.folly::SharedMutexImpl", [4 x i8] }>
%"class.folly::SharedMutexImpl" = type { %"struct.std::atomic" }
%"struct.std::atomic" = type { %"struct.std::__atomic_base" }
%"struct.std::__atomic_base" = type { i32 }

; Function Attrs: mustprogress uwtable
define linkonce_odr void @_ZNSt11unique_lockIN5folly15SharedMutexImplILb0EvSt6atomicNS0_24SharedMutexPolicyDefaultEEEE4lockEv(ptr noundef nonnull align 8 dereferenceable(9) %this) #2 comdat align 2 {
entry:
  %this.addr = alloca ptr, align 8
  store ptr %this, ptr %this.addr, align 8
  %this1 = load ptr, ptr %this.addr, align 8
  %_M_device = getelementptr inbounds %"class.std::unique_lock", ptr %this1, i32 0, i32 0
  %0 = load ptr, ptr %_M_device, align 8
  %tobool = icmp ne ptr %0, null
  br i1 %tobool, label %if.else, label %if.then

if.then:                                          ; preds = %entry
  call void @_ZSt20__throw_system_errori(i32 noundef 1) #21
  unreachable

if.else:                                          ; preds = %entry
  %_M_owns = getelementptr inbounds %"class.std::unique_lock", ptr %this1, i32 0, i32 1
  %1 = load i8, ptr %_M_owns, align 8
  %tobool2 = trunc i8 %1 to i1
  br i1 %tobool2, label %if.then3, label %if.else4

if.then3:                                         ; preds = %if.else
  call void @_ZSt20__throw_system_errori(i32 noundef 35) #21
  unreachable

if.else4:                                         ; preds = %if.else
  %_M_device5 = getelementptr inbounds %"class.std::unique_lock", ptr %this1, i32 0, i32 0
  %2 = load ptr, ptr %_M_device5, align 8
  call void @_ZN5folly15SharedMutexImplILb0EvSt6atomicNS_24SharedMutexPolicyDefaultEE4lockEv(ptr noundef nonnull align 4 dereferenceable(4) %2)
  %_M_owns6 = getelementptr inbounds %"class.std::unique_lock", ptr %this1, i32 0, i32 1
  store i8 1, ptr %_M_owns6, align 8
  br label %if.end

if.end:                                           ; preds = %if.else4
  br label %if.end7

if.end7:                                          ; preds = %if.end
  ret void
}

; Function Attrs: mustprogress uwtable
define linkonce_odr void @_ZNSt11unique_lockIN5folly15SharedMutexImplILb0EvSt6atomicNS0_24SharedMutexPolicyDefaultEEEE6unlockEv(ptr noundef nonnull align 8 dereferenceable(9) %this) #2 comdat align 2 {
entry:
  %this.addr = alloca ptr, align 8
  store ptr %this, ptr %this.addr, align 8
  %this1 = load ptr, ptr %this.addr, align 8
  %_M_owns = getelementptr inbounds %"class.std::unique_lock", ptr %this1, i32 0, i32 1
  %0 = load i8, ptr %_M_owns, align 8
  %tobool = trunc i8 %0 to i1
  br i1 %tobool, label %if.else, label %if.then

if.then:                                          ; preds = %entry
  call void @_ZSt20__throw_system_errori(i32 noundef 1) #21
  unreachable

if.else:                                          ; preds = %entry
  %_M_device = getelementptr inbounds %"class.std::unique_lock", ptr %this1, i32 0, i32 0
  %1 = load ptr, ptr %_M_device, align 8
  %tobool2 = icmp ne ptr %1, null
  br i1 %tobool2, label %if.then3, label %if.end

if.then3:                                         ; preds = %if.else
  %_M_device4 = getelementptr inbounds %"class.std::unique_lock", ptr %this1, i32 0, i32 0
  %2 = load ptr, ptr %_M_device4, align 8
  call void @_ZN5folly15SharedMutexImplILb0EvSt6atomicNS_24SharedMutexPolicyDefaultEE6unlockEv(ptr noundef nonnull align 4 dereferenceable(4) %2)
  %_M_owns5 = getelementptr inbounds %"class.std::unique_lock", ptr %this1, i32 0, i32 1
  store i8 0, ptr %_M_owns5, align 8
  br label %if.end

if.end:                                           ; preds = %if.then3, %if.else
  br label %if.end6

if.end6:                                          ; preds = %if.end
  ret void
}

; Function Attrs: mustprogress nounwind uwtable
define linkonce_odr noundef ptr @_ZNKSt11unique_lockIN5folly15SharedMutexImplILb0EvSt6atomicNS0_24SharedMutexPolicyDefaultEEEE5mutexEv(ptr noundef nonnull align 8 dereferenceable(9) %this) #0 comdat align 2 {
entry:
  %this.addr = alloca ptr, align 8
  store ptr %this, ptr %this.addr, align 8
  %this1 = load ptr, ptr %this.addr, align 8
  %_M_device = getelementptr inbounds %"class.std::unique_lock", ptr %this1, i32 0, i32 0
  %0 = load ptr, ptr %_M_device, align 8
  ret ptr %0
}

; Function Attrs: mustprogress uwtable
define linkonce_odr void @_ZNSt11unique_lockIN5folly15SharedMutexImplILb0EvSt6atomicNS0_24SharedMutexPolicyDefaultEEEEC2ERS4_(ptr noundef nonnull align 8 dereferenceable(9) %this, ptr noundef nonnull align 4 dereferenceable(4) %__m) unnamed_addr #2 comdat align 2 {
entry:
  %this.addr = alloca ptr, align 8
  %__m.addr = alloca ptr, align 8
  store ptr %this, ptr %this.addr, align 8
  store ptr %__m, ptr %__m.addr, align 8
  %this1 = load ptr, ptr %this.addr, align 8
  %_M_device = getelementptr inbounds %"class.std::unique_lock", ptr %this1, i32 0, i32 0
  %0 = load ptr, ptr %__m.addr, align 8
  store ptr %0, ptr %_M_device, align 8
  %_M_owns = getelementptr inbounds %"class.std::unique_lock", ptr %this1, i32 0, i32 1
  store i8 0, ptr %_M_owns, align 8
  call void @_ZNSt11unique_lockIN5folly15SharedMutexImplILb0EvSt6atomicNS0_24SharedMutexPolicyDefaultEEEE4lockEv(ptr noundef nonnull align 8 dereferenceable(9) %this1)
  %_M_owns2 = getelementptr inbounds %"class.std::unique_lock", ptr %this1, i32 0, i32 1
  store i8 1, ptr %_M_owns2, align 8
  ret void
}

; Function Attrs: mustprogress nounwind uwtable
define linkonce_odr void @_ZNSt11unique_lockIN5folly15SharedMutexImplILb0EvSt6atomicNS0_24SharedMutexPolicyDefaultEEEEC2Ev(ptr noundef nonnull align 8 dereferenceable(9) %this) unnamed_addr #0 comdat align 2 {
entry:
  %this.addr = alloca ptr, align 8
  store ptr %this, ptr %this.addr, align 8
  %this1 = load ptr, ptr %this.addr, align 8
  %_M_device = getelementptr inbounds %"class.std::unique_lock", ptr %this1, i32 0, i32 0
  store ptr null, ptr %_M_device, align 8
  %_M_owns = getelementptr inbounds %"class.std::unique_lock", ptr %this1, i32 0, i32 1
  store i8 0, ptr %_M_owns, align 8
  ret void
}

; Function Attrs: mustprogress nounwind uwtable
define linkonce_odr void @_ZNSt11unique_lockIN5folly15SharedMutexImplILb0EvSt6atomicNS0_24SharedMutexPolicyDefaultEEEED2Ev(ptr noundef nonnull align 8 dereferenceable(9) %this) unnamed_addr #0 comdat align 2 personality ptr @__gxx_personality_v0 {
entry:
  %this.addr = alloca ptr, align 8
  store ptr %this, ptr %this.addr, align 8
  %this1 = load ptr, ptr %this.addr, align 8
  %_M_owns = getelementptr inbounds %"class.std::unique_lock", ptr %this1, i32 0, i32 1
  %0 = load i8, ptr %_M_owns, align 8
  %tobool = trunc i8 %0 to i1
  br i1 %tobool, label %if.then, label %if.end

if.then:                                          ; preds = %entry
  invoke void @_ZNSt11unique_lockIN5folly15SharedMutexImplILb0EvSt6atomicNS0_24SharedMutexPolicyDefaultEEEE6unlockEv(ptr noundef nonnull align 8 dereferenceable(9) %this1)
          to label %invoke.cont unwind label %terminate.lpad

invoke.cont:                                      ; preds = %if.then
  br label %if.end

if.end:                                           ; preds = %invoke.cont, %entry
  ret void

terminate.lpad:                                   ; preds = %if.then
  %1 = landingpad { ptr, i32 }
          catch ptr null
  %2 = extractvalue { ptr, i32 } %1, 0
  call void @__clang_call_terminate(ptr %2) #19
  unreachable
}

; Function Attrs: mustprogress nounwind uwtable
define linkonce_odr noundef ptr @_ZNK5folly9LockedPtrINS_12SynchronizedIN8facebook5velox6common10SpillStatsENS_15SharedMutexImplILb0EvSt6atomicNS_24SharedMutexPolicyDefaultEEEEENS_6detail22SynchronizedLockPolicyILNSB_22SynchronizedMutexLevelE1ELNSB_23SynchronizedMutexMethodE0EEEE6parentEv(ptr noundef nonnull align 8 dereferenceable(16) %this) #0 comdat align 2 {
entry:
  %this.addr = alloca ptr, align 8
  %off = alloca i64, align 8
  %raw = alloca ptr, align 8
  store ptr %this, ptr %this.addr, align 8
  %this1 = load ptr, ptr %this.addr, align 8
  store i64 104, ptr %off, align 8
  %lock_ = getelementptr inbounds %"class.folly::LockedPtr", ptr %this1, i32 0, i32 0
  %call = call noundef ptr @_ZNKSt11unique_lockIN5folly15SharedMutexImplILb0EvSt6atomicNS0_24SharedMutexPolicyDefaultEEEE5mutexEv(ptr noundef nonnull align 8 dereferenceable(9) %lock_) #9
  store ptr %call, ptr %raw, align 8
  %0 = load ptr, ptr %raw, align 8
  %1 = load ptr, ptr %raw, align 8
  %tobool = icmp ne ptr %1, null
  %cond = select i1 %tobool, i64 104, i64 0
  %idx.neg = sub i64 0, %cond
  %add.ptr = getelementptr inbounds i8, ptr %0, i64 %idx.neg
  ret ptr %add.ptr
}

; Function Attrs: mustprogress uwtable
define linkonce_odr void @_ZN5folly9LockedPtrINS_12SynchronizedIN8facebook5velox6common10SpillStatsENS_15SharedMutexImplILb0EvSt6atomicNS_24SharedMutexPolicyDefaultEEEEENS_6detail22SynchronizedLockPolicyILNSB_22SynchronizedMutexLevelE1ELNSB_23SynchronizedMutexMethodE0EEEEC2EPSA_(ptr noundef nonnull align 8 dereferenceable(16) %this, ptr noundef %parent) unnamed_addr #2 comdat align 2 {
entry:
  %result.ptr.i = alloca ptr, align 8
  %mutex.addr.i = alloca ptr, align 8
  %this.addr = alloca ptr, align 8
  %parent.addr = alloca ptr, align 8
  store ptr %this, ptr %this.addr, align 8
  store ptr %parent, ptr %parent.addr, align 8
  %this1 = load ptr, ptr %this.addr, align 8
  %lock_ = getelementptr inbounds %"class.folly::LockedPtr", ptr %this1, i32 0, i32 0
  %0 = load ptr, ptr %parent.addr, align 8
  %tobool = icmp ne ptr %0, null
  br i1 %tobool, label %cond.false, label %cond.true

cond.true:                                        ; preds = %entry
  call void @_ZNSt11unique_lockIN5folly15SharedMutexImplILb0EvSt6atomicNS0_24SharedMutexPolicyDefaultEEEEC2Ev(ptr noundef nonnull align 8 dereferenceable(9) %lock_) #9
  br label %cond.end

cond.false:                                       ; preds = %entry
  %1 = load ptr, ptr %parent.addr, align 8
  %mutex_ = getelementptr inbounds %"struct.folly::Synchronized", ptr %1, i32 0, i32 1
  call void @llvm.experimental.noalias.scope.decl(metadata !11)
  store ptr %lock_, ptr %result.ptr.i, align 8, !noalias !11
  store ptr %mutex_, ptr %mutex.addr.i, align 8, !noalias !11
  %2 = load ptr, ptr %mutex.addr.i, align 8, !noalias !11
  call void @_ZNSt11unique_lockIN5folly15SharedMutexImplILb0EvSt6atomicNS0_24SharedMutexPolicyDefaultEEEEC2ERS4_(ptr noundef nonnull align 8 dereferenceable(9) %lock_, ptr noundef nonnull align 4 dereferenceable(4) %2)
  br label %cond.end

cond.end:                                         ; preds = %cond.false, %cond.true
  ret void
}

; Function Attrs: mustprogress nounwind uwtable
define linkonce_odr void @_ZN5folly9LockedPtrINS_12SynchronizedIN8facebook5velox6common10SpillStatsENS_15SharedMutexImplILb0EvSt6atomicNS_24SharedMutexPolicyDefaultEEEEENS_6detail22SynchronizedLockPolicyILNSB_22SynchronizedMutexLevelE1ELNSB_23SynchronizedMutexMethodE0EEEED2Ev(ptr noundef nonnull align 8 dereferenceable(16) %this) unnamed_addr #0 comdat align 2 {
entry:
  %this.addr = alloca ptr, align 8
  store ptr %this, ptr %this.addr, align 8
  %this1 = load ptr, ptr %this.addr, align 8
  %lock_ = getelementptr inbounds %"class.folly::LockedPtr", ptr %this1, i32 0, i32 0
  call void @_ZNSt11unique_lockIN5folly15SharedMutexImplILb0EvSt6atomicNS0_24SharedMutexPolicyDefaultEEEED2Ev(ptr noundef nonnull align 8 dereferenceable(9) %lock_) #9
  ret void
}

; Function Attrs: mustprogress uwtable
define linkonce_odr noundef ptr @_ZNK5folly9LockedPtrINS_12SynchronizedIN8facebook5velox6common10SpillStatsENS_15SharedMutexImplILb0EvSt6atomicNS_24SharedMutexPolicyDefaultEEEEENS_6detail22SynchronizedLockPolicyILNSB_22SynchronizedMutexLevelE1ELNSB_23SynchronizedMutexMethodE0EEEEptEv(ptr noundef nonnull align 8 dereferenceable(16) %this) #2 comdat align 2 {
entry:
  %this.addr = alloca ptr, align 8
  store ptr %this, ptr %this.addr, align 8
  %this1 = load ptr, ptr %this.addr, align 8
  %call = call noundef ptr @_ZNK5folly9LockedPtrINS_12SynchronizedIN8facebook5velox6common10SpillStatsENS_15SharedMutexImplILb0EvSt6atomicNS_24SharedMutexPolicyDefaultEEEEENS_6detail22SynchronizedLockPolicyILNSB_22SynchronizedMutexLevelE1ELNSB_23SynchronizedMutexMethodE0EEEE6parentEv(ptr noundef nonnull align 8 dereferenceable(16) %this1)
  %datum_ = getelementptr inbounds %"struct.folly::Synchronized", ptr %call, i32 0, i32 0
  ret ptr %datum_
}

; Function Attrs: mustprogress uwtable
define linkonce_odr void @_ZN5folly16SynchronizedBaseINS_12SynchronizedIN8facebook5velox6common10SpillStatsENS_15SharedMutexImplILb0EvSt6atomicNS_24SharedMutexPolicyDefaultEEEEELNS_6detail22SynchronizedMutexLevelE2EE5wlockEv(ptr noalias sret(%"class.folly::LockedPtr") align 8 %agg.result, ptr noundef nonnull align 1 dereferenceable(1) %this) #2 comdat align 2 {
entry:
  %result.ptr = alloca ptr, align 8
  %this.addr = alloca ptr, align 8
  store ptr %agg.result, ptr %result.ptr, align 8
  store ptr %this, ptr %this.addr, align 8
  %this1 = load ptr, ptr %this.addr, align 8
  call void @_ZN5folly9LockedPtrINS_12SynchronizedIN8facebook5velox6common10SpillStatsENS_15SharedMutexImplILb0EvSt6atomicNS_24SharedMutexPolicyDefaultEEEEENS_6detail22SynchronizedLockPolicyILNSB_22SynchronizedMutexLevelE1ELNSB_23SynchronizedMutexMethodE0EEEEC2EPSA_(ptr noundef nonnull align 8 dereferenceable(16) %agg.result, ptr noundef %this1)
  ret void
}

; Function Attrs: mustprogress uwtable
define void @_ZN8facebook5velox6common38updateGlobalMaxSpillLevelExceededCountEm(i64 noundef %maxSpillLevelExceededCount) #2 personality ptr @__gxx_personality_v0 {
entry:
  %maxSpillLevelExceededCount.addr = alloca i64, align 8
  %ref.tmp = alloca %"class.folly::LockedPtr", align 8
  %exn.slot = alloca ptr, align 8
  %ehselector.slot = alloca i32, align 4
  store i64 %maxSpillLevelExceededCount, ptr %maxSpillLevelExceededCount.addr, align 8
  %0 = load i64, ptr %maxSpillLevelExceededCount.addr, align 8
  %call = call noundef nonnull align 8 dereferenceable(108) ptr @_ZN8facebook5velox6common12_GLOBAL__N_115localSpillStatsEv()
  call void @_ZN5folly16SynchronizedBaseINS_12SynchronizedIN8facebook5velox6common10SpillStatsENS_15SharedMutexImplILb0EvSt6atomicNS_24SharedMutexPolicyDefaultEEEEELNS_6detail22SynchronizedMutexLevelE2EE5wlockEv(ptr sret(%"class.folly::LockedPtr") align 8 %ref.tmp, ptr noundef nonnull align 1 dereferenceable(1) %call)
  %call1 = invoke noundef ptr @_ZNK5folly9LockedPtrINS_12SynchronizedIN8facebook5velox6common10SpillStatsENS_15SharedMutexImplILb0EvSt6atomicNS_24SharedMutexPolicyDefaultEEEEENS_6detail22SynchronizedLockPolicyILNSB_22SynchronizedMutexLevelE1ELNSB_23SynchronizedMutexMethodE0EEEEptEv(ptr noundef nonnull align 8 dereferenceable(16) %ref.tmp)
          to label %invoke.cont unwind label %lpad

invoke.cont:                                      ; preds = %entry
  %spillMaxLevelExceededCount = getelementptr inbounds %"struct.facebook::velox::common::SpillStats", ptr %call1, i32 0, i32 12
  %1 = load i64, ptr %spillMaxLevelExceededCount, align 8
  %add = add i64 %1, %0
  store i64 %add, ptr %spillMaxLevelExceededCount, align 8
  call void @_ZN5folly9LockedPtrINS_12SynchronizedIN8facebook5velox6common10SpillStatsENS_15SharedMutexImplILb0EvSt6atomicNS_24SharedMutexPolicyDefaultEEEEENS_6detail22SynchronizedLockPolicyILNSB_22SynchronizedMutexLevelE1ELNSB_23SynchronizedMutexMethodE0EEEED2Ev(ptr noundef nonnull align 8 dereferenceable(16) %ref.tmp) #9
  ret void

lpad:                                             ; preds = %entry
  %2 = landingpad { ptr, i32 }
          cleanup
  %3 = extractvalue { ptr, i32 } %2, 0
  store ptr %3, ptr %exn.slot, align 8
  %4 = extractvalue { ptr, i32 } %2, 1
  store i32 %4, ptr %ehselector.slot, align 4
  call void @_ZN5folly9LockedPtrINS_12SynchronizedIN8facebook5velox6common10SpillStatsENS_15SharedMutexImplILb0EvSt6atomicNS_24SharedMutexPolicyDefaultEEEEENS_6detail22SynchronizedLockPolicyILNSB_22SynchronizedMutexLevelE1ELNSB_23SynchronizedMutexMethodE0EEEED2Ev(ptr noundef nonnull align 8 dereferenceable(16) %ref.tmp) #9
  br label %eh.resume

eh.resume:                                        ; preds = %lpad
  %exn = load ptr, ptr %exn.slot, align 8
  %sel = load i32, ptr %ehselector.slot, align 4
  %lpad.val = insertvalue { ptr, i32 } poison, ptr %exn, 0
  %lpad.val2 = insertvalue { ptr, i32 } %lpad.val, i32 %sel, 1
  resume { ptr, i32 } %lpad.val2
}